target datalayout = "e-m:e-p270:32:32-p271:32:32-p272:64:64-i64:64-i128:128-f80:128-n8:16:32:64-S128"
target triple = "x86_64-pc-linux-gnu"

%struct.MPADSPContext = type { ptr, ptr, ptr, ptr, ptr, ptr }

; Function Attrs: nounwind uwtable
define hidden void @ff_mpa_synth_filter_fixed(ptr noundef %0, ptr noundef %1, ptr noundef %2, ptr noundef %3, ptr noundef %4, ptr noundef %5, i64 noundef %6, ptr noundef %7) #0 {
  %9 = alloca ptr, align 8
  %10 = alloca ptr, align 8
  %11 = alloca ptr, align 8
  %12 = alloca ptr, align 8
  %13 = alloca ptr, align 8
  %14 = alloca ptr, align 8
  %15 = alloca i64, align 8
  %16 = alloca ptr, align 8
  %17 = alloca ptr, align 8
  %18 = alloca i32, align 4
  store ptr %0, ptr %9, align 8, !tbaa !21
  store ptr %1, ptr %10, align 8, !tbaa !4
  store ptr %2, ptr %11, align 8, !tbaa !4
  store ptr %3, ptr %12, align 8, !tbaa !4
  store ptr %4, ptr %13, align 8, !tbaa !4
  store ptr %5, ptr %14, align 8, !tbaa !9
  store i64 %6, ptr %15, align 8, !tbaa !11
  store ptr %7, ptr %16, align 8, !tbaa !4
  call void @llvm.lifetime.start.p0(i64 8, ptr %17) #8
  call void @llvm.lifetime.start.p0(i64 4, ptr %18) #8
  %19 = load ptr, ptr %11, align 8, !tbaa !4
  %20 = load i32, ptr %19, align 4, !tbaa !13
  store i32 %20, ptr %18, align 4, !tbaa !13
  %21 = load ptr, ptr %10, align 8, !tbaa !4
  %22 = load i32, ptr %18, align 4, !tbaa !13
  %23 = sext i32 %22 to i64
  %24 = getelementptr inbounds i32, ptr %21, i64 %23
  store ptr %24, ptr %17, align 8, !tbaa !4
  %25 = load ptr, ptr %9, align 8, !tbaa !21
  %26 = getelementptr inbounds nuw %struct.MPADSPContext, ptr %25, i32 0, i32 3
  %27 = load ptr, ptr %26, align 8, !tbaa !23
  %28 = load ptr, ptr %17, align 8, !tbaa !4
  %29 = load ptr, ptr %16, align 8, !tbaa !4
  call void %27(ptr noundef %28, ptr noundef %29)
  %30 = load ptr, ptr %9, align 8, !tbaa !21
  %31 = getelementptr inbounds nuw %struct.MPADSPContext, ptr %30, i32 0, i32 1
  %32 = load ptr, ptr %31, align 8, !tbaa !25
  %33 = load ptr, ptr %17, align 8, !tbaa !4
  %34 = load ptr, ptr %12, align 8, !tbaa !4
  %35 = load ptr, ptr %13, align 8, !tbaa !4
  %36 = load ptr, ptr %14, align 8, !tbaa !9
  %37 = load i64, ptr %15, align 8, !tbaa !11
  call void %32(ptr noundef %33, ptr noundef %34, ptr noundef %35, ptr noundef %36, i64 noundef %37)
  %38 = load i32, ptr %18, align 4, !tbaa !13
  %39 = sub nsw i32 %38, 32
  %40 = and i32 %39, 511
  store i32 %40, ptr %18, align 4, !tbaa !13
  %41 = load i32, ptr %18, align 4, !tbaa !13
  %42 = load ptr, ptr %11, align 8, !tbaa !4
  store i32 %41, ptr %42, align 4, !tbaa !13
  call void @llvm.lifetime.end.p0(i64 4, ptr %18) #8
  call void @llvm.lifetime.end.p0(i64 8, ptr %17) #8
  ret void
}